target datalayout = "e-m:e-p270:32:32-p271:32:32-p272:64:64-i64:64-i128:128-f80:128-n8:16:32:64-S128"
target triple = "x86_64-pc-linux-gnu"

%struct.Cgt_Man_t_ = type { ptr, ptr, ptr, ptr, ptr, ptr, ptr, ptr, ptr, ptr, ptr, ptr, ptr, ptr, i32, i32, i32, i32, i32, i32, i32, i32, i64, i64, i64, i64, i64, i64, i64, i64, i64 }
%struct.Vec_Ptr_t_ = type { i32, i32, ptr }
%struct.Aig_Obj_t_ = type { %union.anon, ptr, ptr, i64, i32, i32, %union.anon.0 }
%union.anon = type { ptr }
%union.anon.0 = type { ptr }

; Function Attrs: inlinehint nounwind uwtable
define internal i32 @Aig_IsComplement(ptr noundef %0) #3 {
  %2 = alloca ptr, align 8
  store ptr %0, ptr %2, align 8, !tbaa !20
  %3 = load ptr, ptr %2, align 8, !tbaa !20
  %4 = ptrtoint ptr %3 to i64
  %5 = and i64 %4, 1
  %6 = trunc i64 %5 to i32
  ret i32 %6
}

; Function Attrs: inlinehint nounwind uwtable
define internal ptr @Vec_PtrEntry(ptr noundef %0, i32 noundef %1) #3 {
  %3 = alloca ptr, align 8
  %4 = alloca i32, align 4
  store ptr %0, ptr %3, align 8, !tbaa !38
  store i32 %1, ptr %4, align 4, !tbaa !31
  %5 = load ptr, ptr %3, align 8, !tbaa !38
  %6 = getelementptr inbounds nuw %struct.Vec_Ptr_t_, ptr %5, i32 0, i32 2
  %7 = load ptr, ptr %6, align 8, !tbaa !39
  %8 = load i32, ptr %4, align 4, !tbaa !31
  %9 = sext i32 %8 to i64
  %10 = getelementptr inbounds ptr, ptr %7, i64 %9
  %11 = load ptr, ptr %10, align 8, !tbaa !41
  ret ptr %11
}

; Function Attrs: inlinehint nounwind uwtable
define internal i32 @Aig_ObjId(ptr noundef %0) #3 {
  %2 = alloca ptr, align 8
  store ptr %0, ptr %2, align 8, !tbaa !20
  %3 = load ptr, ptr %2, align 8, !tbaa !20
  %4 = getelementptr inbounds nuw %struct.Aig_Obj_t_, ptr %3, i32 0, i32 5
  %5 = load i32, ptr %4, align 4, !tbaa !42
  ret i32 %5
}

; Function Attrs: inlinehint nounwind uwtable
define internal ptr @Aig_Regular(ptr noundef %0) #3 {
  %2 = alloca ptr, align 8
  store ptr %0, ptr %2, align 8, !tbaa !20
  %3 = load ptr, ptr %2, align 8, !tbaa !20
  %4 = ptrtoint ptr %3 to i64
  %5 = and i64 %4, -2
  %6 = inttoptr i64 %5 to ptr
  ret ptr %6
}

; Function Attrs: inlinehint nounwind uwtable
define internal i32 @Abc_BitWordNum(i32 noundef %0) #3 {
  %2 = alloca i32, align 4
  store i32 %0, ptr %2, align 4, !tbaa !31
  %3 = load i32, ptr %2, align 4, !tbaa !31
  %4 = ashr i32 %3, 5
  %5 = load i32, ptr %2, align 4, !tbaa !31
  %6 = and i32 %5, 31
  %7 = icmp sgt i32 %6, 0
  %8 = zext i1 %7 to i32
  %9 = add nsw i32 %4, %8
  ret i32 %9
}

; Function Attrs: nounwind uwtable
define i32 @Cgt_SimulationFilter(ptr noundef %0, ptr noundef %1, ptr noundef %2) #0 {
  %4 = alloca i32, align 4
  %5 = alloca ptr, align 8
  %6 = alloca ptr, align 8
  %7 = alloca ptr, align 8
  %8 = alloca ptr, align 8
  %9 = alloca ptr, align 8
  %10 = alloca i32, align 4
  %11 = alloca i32, align 4
  %12 = alloca i32, align 4
  store ptr %0, ptr %5, align 8, !tbaa !18
  store ptr %1, ptr %6, align 8, !tbaa !20
  store ptr %2, ptr %7, align 8, !tbaa !20
  call void @llvm.lifetime.start.p0(i64 8, ptr %8) #11
  call void @llvm.lifetime.start.p0(i64 8, ptr %9) #11
  call void @llvm.lifetime.start.p0(i64 4, ptr %10) #11
  call void @llvm.lifetime.start.p0(i64 4, ptr %11) #11
  %13 = load ptr, ptr %5, align 8, !tbaa !18
  %14 = getelementptr inbounds nuw %struct.Cgt_Man_t_, ptr %13, i32 0, i32 14
  %15 = load i32, ptr %14, align 8, !tbaa !22
  %16 = call i32 @Abc_BitWordNum(i32 noundef %15)
  store i32 %16, ptr %11, align 4, !tbaa !31
  %17 = load ptr, ptr %5, align 8, !tbaa !18
  %18 = getelementptr inbounds nuw %struct.Cgt_Man_t_, ptr %17, i32 0, i32 13
  %19 = load ptr, ptr %18, align 8, !tbaa !32
  %20 = load ptr, ptr %6, align 8, !tbaa !20
  %21 = call ptr @Aig_Regular(ptr noundef %20)
  %22 = call i32 @Aig_ObjId(ptr noundef %21)
  %23 = call ptr @Vec_PtrEntry(ptr noundef %19, i32 noundef %22)
  store ptr %23, ptr %8, align 8, !tbaa !33
  %24 = load ptr, ptr %5, align 8, !tbaa !18
  %25 = getelementptr inbounds nuw %struct.Cgt_Man_t_, ptr %24, i32 0, i32 13
  %26 = load ptr, ptr %25, align 8, !tbaa !32
  %27 = load ptr, ptr %7, align 8, !tbaa !20
  %28 = call i32 @Aig_ObjId(ptr noundef %27)
  %29 = call ptr @Vec_PtrEntry(ptr noundef %26, i32 noundef %28)
  store ptr %29, ptr %9, align 8, !tbaa !33
  %30 = load ptr, ptr %6, align 8, !tbaa !20
  %31 = call i32 @Aig_IsComplement(ptr noundef %30)
  %32 = icmp ne i32 %31, 0
  br i1 %32, label %57, label %33

33:                                               ; preds = %3
  store i32 0, ptr %10, align 4, !tbaa !31
  br label %34

34:                                               ; preds = %53, %33
  %35 = load i32, ptr %10, align 4, !tbaa !31
  %36 = load i32, ptr %11, align 4, !tbaa !31
  %37 = icmp slt i32 %35, %36
  br i1 %37, label %38, label %56

38:                                               ; preds = %34
  %39 = load ptr, ptr %8, align 8, !tbaa !33
  %40 = load i32, ptr %10, align 4, !tbaa !31
  %41 = sext i32 %40 to i64
  %42 = getelementptr inbounds i32, ptr %39, i64 %41
  %43 = load i32, ptr %42, align 4, !tbaa !31
  %44 = load ptr, ptr %9, align 8, !tbaa !33
  %45 = load i32, ptr %10, align 4, !tbaa !31
  %46 = sext i32 %45 to i64
  %47 = getelementptr inbounds i32, ptr %44, i64 %46
  %48 = load i32, ptr %47, align 4, !tbaa !31
  %49 = and i32 %43, %48
  %50 = icmp ne i32 %49, 0
  br i1 %50, label %51, label %52

51:                                               ; preds = %38
  store i32 0, ptr %4, align 4
  store i32 1, ptr %12, align 4
  br label %83

52:                                               ; preds = %38
  br label %53

53:                                               ; preds = %52
  %54 = load i32, ptr %10, align 4, !tbaa !31
  %55 = add nsw i32 %54, 1
  store i32 %55, ptr %10, align 4, !tbaa !31
  br label %34, !llvm.loop !35

56:                                               ; preds = %34
  br label %82

57:                                               ; preds = %3
  store i32 0, ptr %10, align 4, !tbaa !31
  br label %58

58:                                               ; preds = %78, %57
  %59 = load i32, ptr %10, align 4, !tbaa !31
  %60 = load i32, ptr %11, align 4, !tbaa !31
  %61 = icmp slt i32 %59, %60
  br i1 %61, label %62, label %81

62:                                               ; preds = %58
  %63 = load ptr, ptr %8, align 8, !tbaa !33
  %64 = load i32, ptr %10, align 4, !tbaa !31
  %65 = sext i32 %64 to i64
  %66 = getelementptr inbounds i32, ptr %63, i64 %65
  %67 = load i32, ptr %66, align 4, !tbaa !31
  %68 = xor i32 %67, -1
  %69 = load ptr, ptr %9, align 8, !tbaa !33
  %70 = load i32, ptr %10, align 4, !tbaa !31
  %71 = sext i32 %70 to i64
  %72 = getelementptr inbounds i32, ptr %69, i64 %71
  %73 = load i32, ptr %72, align 4, !tbaa !31
  %74 = and i32 %68, %73
  %75 = icmp ne i32 %74, 0
  br i1 %75, label %76, label %77

76:                                               ; preds = %62
  store i32 0, ptr %4, align 4
  store i32 1, ptr %12, align 4
  br label %83

77:                                               ; preds = %62
  br label %78

78:                                               ; preds = %77
  %79 = load i32, ptr %10, align 4, !tbaa !31
  %80 = add nsw i32 %79, 1
  store i32 %80, ptr %10, align 4, !tbaa !31
  br label %58, !llvm.loop !37

81:                                               ; preds = %58
  br label %82

82:                                               ; preds = %81, %56
  store i32 1, ptr %4, align 4
  store i32 1, ptr %12, align 4
  br label %83

83:                                               ; preds = %82, %76, %51
  call void @llvm.lifetime.end.p0(i64 4, ptr %11) #11
  call void @llvm.lifetime.end.p0(i64 4, ptr %10) #11
  call void @llvm.lifetime.end.p0(i64 8, ptr %9) #11
  call void @llvm.lifetime.end.p0(i64 8, ptr %8) #11
  %84 = load i32, ptr %4, align 4
  ret i32 %84
}