; Function Attrs: nofree norecurse nosync nounwind memory(read, inaccessiblemem: none) uwtable
define range(i32 0, 2) i32 @Cgt_SimulationFilter(ptr noundef readonly captures(none) %0, ptr noundef %1, ptr noundef readonly captures(none) %2) local_unnamed_addr #2 {
  %4 = getelementptr inbounds nuw i8, ptr %0, i64 112
  %5 = load i32, ptr %4, align 8, !tbaa !15
  %6 = ashr i32 %5, 5
  %7 = and i32 %5, 31
  %8 = icmp ne i32 %7, 0
  %9 = zext i1 %8 to i32
  %10 = add nsw i32 %6, %9
  %11 = getelementptr inbounds nuw i8, ptr %0, i64 104
  %12 = load ptr, ptr %11, align 8, !tbaa !26
  %13 = ptrtoint ptr %1 to i64
  %14 = and i64 %13, -2
  %15 = inttoptr i64 %14 to ptr
  %16 = getelementptr i8, ptr %15, i64 36
  %.val = load i32, ptr %16, align 4, !tbaa !27
  %17 = getelementptr i8, ptr %12, i64 8
  %.val24 = load ptr, ptr %17, align 8, !tbaa !30
  %18 = sext i32 %.val to i64
  %19 = getelementptr inbounds ptr, ptr %.val24, i64 %18
  %20 = load ptr, ptr %19, align 8, !tbaa !32
  %21 = getelementptr i8, ptr %2, i64 36
  %.val23 = load i32, ptr %21, align 4, !tbaa !27
  %22 = sext i32 %.val23 to i64
  %23 = getelementptr inbounds ptr, ptr %.val24, i64 %22
  %24 = load ptr, ptr %23, align 8, !tbaa !32
  %25 = and i64 %13, 1
  %.not = icmp eq i64 %25, 0
  %26 = icmp sgt i32 %10, 0
  br i1 %.not, label %.preheader, label %.preheader26

.preheader26:                                     ; preds = %3
  br i1 %26, label %.lr.ph.preheader, label %.loopexit

.lr.ph.preheader:                                 ; preds = %.preheader26
  %wide.trip.count = zext nneg i32 %10 to i64
  br label %.lr.ph

.preheader:                                       ; preds = %3
  br i1 %26, label %.lr.ph33.preheader, label %.loopexit

.lr.ph33.preheader:                               ; preds = %.preheader
  %wide.trip.count43 = zext nneg i32 %10 to i64
  br label %.lr.ph33

27:                                               ; preds = %.lr.ph33
  %indvars.iv.next41 = add nuw nsw i64 %indvars.iv40, 1
  %exitcond44.not = icmp eq i64 %indvars.iv.next41, %wide.trip.count43
  br i1 %exitcond44.not, label %.loopexit, label %.lr.ph33, !llvm.loop !33

.lr.ph33:                                         ; preds = %.lr.ph33.preheader, %27
  %indvars.iv40 = phi i64 [ 0, %.lr.ph33.preheader ], [ %indvars.iv.next41, %27 ]
  %28 = getelementptr inbounds nuw i32, ptr %20, i64 %indvars.iv40
  %29 = load i32, ptr %28, align 4, !tbaa !35
  %30 = getelementptr inbounds nuw i32, ptr %24, i64 %indvars.iv40
  %31 = load i32, ptr %30, align 4, !tbaa !35
  %32 = and i32 %31, %29
  %.not21 = icmp eq i32 %32, 0
  br i1 %.not21, label %27, label %.loopexit

33:                                               ; preds = %.lr.ph
  %indvars.iv.next = add nuw nsw i64 %indvars.iv, 1
  %exitcond.not = icmp eq i64 %indvars.iv.next, %wide.trip.count
  br i1 %exitcond.not, label %.loopexit, label %.lr.ph, !llvm.loop !36

.lr.ph:                                           ; preds = %.lr.ph.preheader, %33
  %indvars.iv = phi i64 [ 0, %.lr.ph.preheader ], [ %indvars.iv.next, %33 ]
  %34 = getelementptr inbounds nuw i32, ptr %20, i64 %indvars.iv
  %35 = load i32, ptr %34, align 4, !tbaa !35
  %36 = xor i32 %35, -1
  %37 = getelementptr inbounds nuw i32, ptr %24, i64 %indvars.iv
  %38 = load i32, ptr %37, align 4, !tbaa !35
  %39 = and i32 %38, %36
  %.not22 = icmp eq i32 %39, 0
  br i1 %.not22, label %33, label %.loopexit

.loopexit:                                        ; preds = %.lr.ph, %33, %.lr.ph33, %27, %.preheader26, %.preheader
  %.0 = phi i32 [ 1, %.preheader ], [ 1, %.preheader26 ], [ 0, %.lr.ph33 ], [ 1, %27 ], [ 0, %.lr.ph ], [ 1, %33 ]
  ret i32 %.0
}